target datalayout = "e-m:e-p270:32:32-p271:32:32-p272:64:64-i64:64-i128:128-f80:128-n8:16:32:64-S128"
target triple = "x86_64-pc-linux-gnu"

%struct.curl_mimepart = type { ptr, ptr, i32, i32, ptr, ptr, ptr, ptr, ptr, ptr, ptr, ptr, ptr, ptr, ptr, i64, %struct.mime_state, ptr, %struct.mime_encoder_state, i64 }
%struct.mime_state = type { i32, ptr, i64 }
%struct.mime_encoder_state = type { i64, i64, i64, [256 x i8] }
%struct.dynbuf = type { ptr, i64, i64, i64 }
%struct.Curl_easy = type { i32, i64, i64, ptr, %struct.Curl_llist_node, %struct.Curl_llist_node, i32, i32, %struct.Curl_message, %struct.easy_pollset, %struct.Names, ptr, ptr, ptr, %struct.SingleRequest, %struct.UserDefined, ptr, ptr, %struct.Progress, %struct.UrlState, ptr, %struct.PureInfo, %struct.curl_tlssessioninfo }
%struct.Curl_llist_node = type { ptr, ptr, ptr, ptr }
%struct.Curl_message = type { %struct.Curl_llist_node, %struct.CURLMsg }
%struct.CURLMsg = type { i32, ptr, %union.anon }
%union.anon = type { ptr }
%struct.easy_pollset = type { [5 x i32], i32, [5 x i8] }
%struct.Names = type { ptr, i32 }
%struct.SingleRequest = type <{ i64, i64, i64, i64, %struct.curltime, i32, i32, i32, i32, i64, i32, i32, i32, i32, ptr, ptr, %struct.bufq, i64, i64, ptr, ptr, %union.anon.0, ptr, i8, i32, [3 x i8] }>
%struct.curltime = type { i64, i32 }
%struct.bufq = type { ptr, ptr, ptr, ptr, i64, i64, i64, i32 }
%union.anon.0 = type { ptr }
%struct.UserDefined = type <{ ptr, ptr, ptr, ptr, ptr, ptr, i16, [6 x i8], i64, i64, i64, ptr, ptr, i64, i16, i16, [4 x i8], ptr, ptr, ptr, ptr, ptr, ptr, ptr, ptr, ptr, ptr, ptr, ptr, ptr, ptr, ptr, ptr, ptr, ptr, ptr, ptr, ptr, ptr, ptr, i32, i32, i32, i32, i32, [4 x i8], i64, i64, i64, i64, i64, i64, i64, i64, ptr, ptr, %struct.curl_mimepart, ptr, ptr, i64, i8, i8, i8, [5 x i8], %struct.ssl_config_data, %struct.ssl_config_data, ptr, i16, i8, i8, [4 x i8], %struct.ssl_general_config, i32, i32, i32, [4 x i8], ptr, ptr, i8, [7 x i8], i64, i8, i8, i8, i8, i32, ptr, ptr, ptr, i8, i8, [2 x i8], i32, [63 x ptr], [8 x ptr], i32, i32, i32, [4 x i8], ptr, ptr, ptr, ptr, ptr, i8, [3 x i8], i32, i32, i32, i64, %struct.Curl_data_priority, ptr, ptr, i64, ptr, i64, ptr, ptr, ptr, i8, [3 x i8], i32, i8, i8, i64, [6 x i8] }>
%struct.ssl_config_data = type { %struct.ssl_primary_config, i64, ptr, ptr, ptr, ptr, ptr, ptr, ptr, i16 }
%struct.ssl_primary_config = type { ptr, ptr, ptr, ptr, ptr, ptr, ptr, ptr, ptr, ptr, ptr, ptr, i8, i32, i8, i8 }
%struct.ssl_general_config = type { i64, i32 }
%struct.Curl_data_priority = type { ptr, ptr, i32, i8 }
%struct.Progress = type { i64, %struct.pgrs_dir, %struct.pgrs_dir, i64, i64, i32, i32, i64, i64, i64, i64, i64, i64, i64, i64, i64, %struct.curltime, %struct.curltime, %struct.curltime, %struct.curltime, [6 x i64], [6 x %struct.curltime], i32, i8 }
%struct.pgrs_dir = type { i64, i64, i64, %struct.pgrs_measure }
%struct.pgrs_measure = type { %struct.curltime, i64 }
%struct.UrlState = type { %struct.curltime, i64, i64, %struct.dynbuf, ptr, i64, ptr, i32, i32, i32, ptr, i64, i32, i64, i32, ptr, %struct.digestdata, %struct.digestdata, %struct.auth, %struct.auth, %struct.Curl_async, ptr, %struct.curltime, %struct.Curl_tree, %struct.Curl_llist, [15 x %struct.time_node], ptr, ptr, i64, i64, %struct.Curl_data_priority, ptr, ptr, ptr, %struct.urlpieces, ptr, ptr, ptr, ptr, ptr, i64, %struct.dynbuf, %struct.Curl_llist, [2 x %struct.curl_header], ptr, i32, ptr, ptr, %struct.store_netrc, %struct.dynamically_allocated_data, i8, i8, i8, i8, i32 }
%struct.digestdata = type { ptr, ptr, ptr, ptr, ptr, ptr, i32, i8, i8 }
%struct.auth = type { i64, i64, i64, i8 }
%struct.Curl_async = type { ptr, ptr, ptr, ptr, i32, i32, i8 }
%struct.Curl_tree = type { ptr, ptr, ptr, ptr, %struct.curltime, ptr }
%struct.time_node = type { %struct.Curl_llist_node, %struct.curltime, i32 }
%struct.urlpieces = type { ptr, ptr, ptr, ptr, ptr, ptr, ptr, ptr }
%struct.Curl_llist = type { ptr, ptr, ptr, i64 }
%struct.curl_header = type { ptr, ptr, i64, i64, i32, ptr }
%struct.store_netrc = type { %struct.dynbuf, ptr, i8 }
%struct.dynamically_allocated_data = type { ptr, ptr, ptr, ptr, ptr, ptr, ptr, ptr, ptr, ptr, ptr, ptr, ptr }
%struct.PureInfo = type { i32, i32, i32, i64, i64, i64, i64, i64, ptr, ptr, i64, i32, %struct.ip_quadruple, i32, ptr, i32, %struct.curl_certinfo, i32, i8 }
%struct.ip_quadruple = type { [46 x i8], [46 x i8], i32, i32 }
%struct.curl_certinfo = type { i32, ptr }
%struct.curl_tlssessioninfo = type { i32, ptr }

@.str.26 = private unnamed_addr constant [1 x i8] zeroinitializer, align 1
@escape_string.mimetable = internal constant [3 x ptr] [ptr @.str.44, ptr @.str.45, ptr null], align 16
@escape_string.formtable = internal constant [4 x ptr] [ptr @.str.46, ptr @.str.47, ptr @.str.48, ptr null], align 16

; Function Attrs: nounwind uwtable
define internal ptr @escape_string(ptr noundef %0, ptr noundef %1, i32 noundef %2) #0 {
  %4 = alloca ptr, align 8
  %5 = alloca ptr, align 8
  %6 = alloca i32, align 4
  %7 = alloca i32, align 4
  %8 = alloca %struct.dynbuf, align 8
  %9 = alloca ptr, align 8
  %10 = alloca ptr, align 8
  store ptr %0, ptr %4, align 8, !tbaa !43
  store ptr %1, ptr %5, align 8, !tbaa !49
  store i32 %2, ptr %6, align 4, !tbaa !45
  call void @llvm.lifetime.start.p0(i64 4, ptr %7) #8
  call void @llvm.lifetime.start.p0(i64 32, ptr %8) #8
  call void @llvm.lifetime.start.p0(i64 8, ptr %9) #8
  call void @llvm.lifetime.start.p0(i64 8, ptr %10) #8
  store ptr @escape_string.formtable, ptr %9, align 8, !tbaa !89
  %11 = load i32, ptr %6, align 4, !tbaa !45
  %12 = icmp eq i32 %11, 0
  br i1 %12, label %24, label %13

13:                                               ; preds = %3
  %14 = load ptr, ptr %4, align 8, !tbaa !43
  %15 = icmp ne ptr %14, null
  br i1 %15, label %16, label %25

16:                                               ; preds = %13
  %17 = load ptr, ptr %4, align 8, !tbaa !43
  %18 = getelementptr inbounds nuw %struct.Curl_easy, ptr %17, i32 0, i32 15
  %19 = getelementptr inbounds nuw %struct.UserDefined, ptr %18, i32 0, i32 124
  %20 = load i64, ptr %19, align 2
  %21 = and i64 %20, 1
  %22 = trunc i64 %21 to i32
  %23 = icmp ne i32 %22, 0
  br i1 %23, label %24, label %25

24:                                               ; preds = %16, %3
  store ptr @escape_string.mimetable, ptr %9, align 8, !tbaa !89
  br label %25

25:                                               ; preds = %24, %16, %13
  call void @Curl_dyn_init(ptr noundef %8, i64 noundef 8000000)
  %26 = call i32 @Curl_dyn_addn(ptr noundef %8, ptr noundef @.str.26, i64 noundef 0)
  store i32 %26, ptr %7, align 4, !tbaa !45
  br label %27

27:                                               ; preds = %71, %25
  %28 = load i32, ptr %7, align 4, !tbaa !45
  %29 = icmp ne i32 %28, 0
  br i1 %29, label %35, label %30

30:                                               ; preds = %27
  %31 = load ptr, ptr %5, align 8, !tbaa !49
  %32 = load i8, ptr %31, align 1, !tbaa !88
  %33 = sext i8 %32 to i32
  %34 = icmp ne i32 %33, 0
  br label %35

35:                                               ; preds = %30, %27
  %36 = phi i1 [ false, %27 ], [ %34, %30 ]
  br i1 %36, label %37, label %74

37:                                               ; preds = %35
  %38 = load ptr, ptr %9, align 8, !tbaa !89
  store ptr %38, ptr %10, align 8, !tbaa !89
  br label %39

39:                                               ; preds = %55, %37
  %40 = load ptr, ptr %10, align 8, !tbaa !89
  %41 = load ptr, ptr %40, align 8, !tbaa !49
  %42 = icmp ne ptr %41, null
  br i1 %42, label %43, label %52

43:                                               ; preds = %39
  %44 = load ptr, ptr %10, align 8, !tbaa !89
  %45 = load ptr, ptr %44, align 8, !tbaa !49
  %46 = load i8, ptr %45, align 1, !tbaa !88
  %47 = sext i8 %46 to i32
  %48 = load ptr, ptr %5, align 8, !tbaa !49
  %49 = load i8, ptr %48, align 1, !tbaa !88
  %50 = sext i8 %49 to i32
  %51 = icmp ne i32 %47, %50
  br label %52

52:                                               ; preds = %43, %39
  %53 = phi i1 [ false, %39 ], [ %51, %43 ]
  br i1 %53, label %54, label %58

54:                                               ; preds = %52
  br label %55

55:                                               ; preds = %54
  %56 = load ptr, ptr %10, align 8, !tbaa !89
  %57 = getelementptr inbounds nuw ptr, ptr %56, i32 1
  store ptr %57, ptr %10, align 8, !tbaa !89
  br label %39, !llvm.loop !91

58:                                               ; preds = %52
  %59 = load ptr, ptr %10, align 8, !tbaa !89
  %60 = load ptr, ptr %59, align 8, !tbaa !49
  %61 = icmp ne ptr %60, null
  br i1 %61, label %62, label %67

62:                                               ; preds = %58
  %63 = load ptr, ptr %10, align 8, !tbaa !89
  %64 = load ptr, ptr %63, align 8, !tbaa !49
  %65 = getelementptr inbounds i8, ptr %64, i64 1
  %66 = call i32 @Curl_dyn_add(ptr noundef %8, ptr noundef %65)
  store i32 %66, ptr %7, align 4, !tbaa !45
  br label %70

67:                                               ; preds = %58
  %68 = load ptr, ptr %5, align 8, !tbaa !49
  %69 = call i32 @Curl_dyn_addn(ptr noundef %8, ptr noundef %68, i64 noundef 1)
  store i32 %69, ptr %7, align 4, !tbaa !45
  br label %70

70:                                               ; preds = %67, %62
  br label %71

71:                                               ; preds = %70
  %72 = load ptr, ptr %5, align 8, !tbaa !49
  %73 = getelementptr inbounds nuw i8, ptr %72, i32 1
  store ptr %73, ptr %5, align 8, !tbaa !49
  br label %27, !llvm.loop !92

74:                                               ; preds = %35
  %75 = call ptr @Curl_dyn_ptr(ptr noundef %8)
  call void @llvm.lifetime.end.p0(i64 8, ptr %10) #8
  call void @llvm.lifetime.end.p0(i64 8, ptr %9) #8
  call void @llvm.lifetime.end.p0(i64 32, ptr %8) #8
  call void @llvm.lifetime.end.p0(i64 4, ptr %7) #8
  ret ptr %75
}