; Function Attrs: nounwind uwtable
define internal fastcc ptr @escape_string(ptr noundef readonly %0, ptr noundef nonnull %1, i32 noundef %2) unnamed_addr #0 {
  %4 = alloca %struct.dynbuf, align 8
  call void @llvm.lifetime.start.p0(i64 32, ptr nonnull %4) #18
  %5 = icmp eq i32 %2, 0
  br i1 %5, label %11, label %6

6:                                                ; preds = %3
  %.not = icmp eq ptr %0, null
  br i1 %.not, label %12, label %7

7:                                                ; preds = %6
  %8 = getelementptr inbounds nuw i8, ptr %0, i64 2562
  %9 = load i64, ptr %8, align 2
  %10 = and i64 %9, 1
  %.not21 = icmp eq i64 %10, 0
  br i1 %.not21, label %12, label %11

11:                                               ; preds = %7, %3
  br label %12

12:                                               ; preds = %11, %7, %6
  %.015 = phi ptr [ @escape_string.mimetable, %11 ], [ @escape_string.formtable, %7 ], [ @escape_string.formtable, %6 ]
  call void @Curl_dyn_init(ptr noundef nonnull %4, i64 noundef 8000000) #18
  %13 = call i32 @Curl_dyn_addn(ptr noundef nonnull %4, ptr noundef nonnull @.str.26, i64 noundef 0) #18
  %.not2230 = icmp eq i32 %13, 0
  br i1 %.not2230, label %.lr.ph33, label %.critedge

.lr.ph33:                                         ; preds = %12, %24
  %.01731 = phi ptr [ %25, %24 ], [ %1, %12 ]
  %14 = load i8, ptr %.01731, align 1, !tbaa !67
  %.not23 = icmp eq i8 %14, 0
  br i1 %.not23, label %.critedge, label %.preheader

.preheader:                                       ; preds = %.lr.ph33
  %15 = load ptr, ptr %.015, align 16, !tbaa !81
  %.not2428 = icmp eq ptr %15, null
  br i1 %.not2428, label %._crit_edge, label %.lr.ph

16:                                               ; preds = %.lr.ph
  %17 = getelementptr inbounds nuw i8, ptr %.029, i64 8
  %18 = load ptr, ptr %17, align 8, !tbaa !81
  %.not24 = icmp eq ptr %18, null
  br i1 %.not24, label %._crit_edge, label %.lr.ph, !llvm.loop !82

.lr.ph:                                           ; preds = %.preheader, %16
  %19 = phi ptr [ %18, %16 ], [ %15, %.preheader ]
  %.029 = phi ptr [ %17, %16 ], [ %.015, %.preheader ]
  %20 = load i8, ptr %19, align 1, !tbaa !67
  %.not25 = icmp eq i8 %20, %14
  br i1 %.not25, label %.critedge2, label %16

.critedge2:                                       ; preds = %.lr.ph
  %21 = getelementptr inbounds nuw i8, ptr %19, i64 1
  %22 = call i32 @Curl_dyn_add(ptr noundef nonnull %4, ptr noundef nonnull %21) #18
  br label %24

._crit_edge:                                      ; preds = %16, %.preheader
  %23 = call i32 @Curl_dyn_addn(ptr noundef nonnull %4, ptr noundef nonnull %.01731, i64 noundef 1) #18
  br label %24

24:                                               ; preds = %.critedge2, %._crit_edge
  %.1 = phi i32 [ %22, %.critedge2 ], [ %23, %._crit_edge ]
  %25 = getelementptr inbounds nuw i8, ptr %.01731, i64 1
  %.not22 = icmp eq i32 %.1, 0
  br i1 %.not22, label %.lr.ph33, label %.critedge, !llvm.loop !83

.critedge:                                        ; preds = %.lr.ph33, %24, %12
  %26 = call ptr @Curl_dyn_ptr(ptr noundef nonnull %4) #18
  call void @llvm.lifetime.end.p0(i64 32, ptr nonnull %4) #18
  ret ptr %26
}